libZXing.so.1:_Z17jisx0208ToUnicodej
libZXing.so.1:_Z17unicodeToJisx0212jj
libZXing.so.1:_ZN13GBTextDecoder12AppendGB2312ERSt6vectorItSaItEEPKhm
libZXing.so.1:_ZN13GBTextDecoder13AppendGB18030ERSt6vectorItSaItEEPKhm
libZXing.so.1:_ZN13GBTextEncoder12EncodeGB2312ERKNSt7__cxx1112basic_stringIwSt11char_traitsIwESaIwEEERNS1_IcS2_IcESaIcEEE
libZXing.so.1:_ZN13GBTextEncoder13EncodeGB18030ERKNSt7__cxx1112basic_stringIwSt11char_traitsIwESaIwEEERNS1_IcS2_IcESaIcEEE
libZXing.so.1:_ZN13JPTextDecoder11AppendEUCJPERSt6vectorItSaItEEPKhm
libZXing.so.1:_ZN13JPTextDecoder14AppendShiftJISERSt6vectorItSaItEEPKhm
libZXing.so.1:_ZN13JPTextEncoder11EncodeEUCJPERKNSt7__cxx1112basic_stringIwSt11char_traitsIwESaIwEEERNS1_IcS2_IcESaIcEEE
libZXing.so.1:_ZN13JPTextEncoder14EncodeShiftJISERKNSt7__cxx1112basic_stringIwSt11char_traitsIwESaIwEEERNS1_IcS2_IcESaIcEEE
libZXing.so.1:_ZN13KRTextDecoder11AppendEucKrERSt6vectorItSaItEEPKhm
libZXing.so.1:_ZN13KRTextEncoder11EncodeEucKrERKNSt7__cxx1112basic_stringIwSt11char_traitsIwESaIwEEERNS1_IcS2_IcESaIcEEE
libZXing.so.1:_ZN15Big5TextDecoder10AppendBig5ERSt6vectorItSaItEEPKhm
libZXing.so.1:_ZN15Big5TextEncoder10EncodeBig5ERKNSt7__cxx1112basic_stringIwSt11char_traitsIwESaIwEEERNS1_IcS2_IcESaIcEEE
libZXing.so.1:_ZN5ZXing10BigInteger3AddERKS0_S2_RS0_
libZXing.so.1:_ZN5ZXing10BigInteger6DivideERKS0_S2_RS0_S3_
libZXing.so.1:_ZN5ZXing10BigInteger8MultiplyERKS0_S2_RS0_
libZXing.so.1:_ZN5ZXing10BigInteger8SubtractERKS0_S2_RS0_
libZXing.so.1:_ZN5ZXing10BigInteger8TryParseERKNSt7__cxx1112basic_stringIcSt11char_traitsIcESaIcEEERS0_
libZXing.so.1:_ZN5ZXing10BigInteger8TryParseERKNSt7__cxx1112basic_stringIwSt11char_traitsIwESaIwEEERS0_
libZXing.so.1:_ZN5ZXing10DataMatrix10SymbolInfo6LookupEi
libZXing.so.1:_ZN5ZXing10DataMatrix10SymbolInfo6LookupEiNS0_11SymbolShapeE
libZXing.so.1:_ZN5ZXing10DataMatrix10SymbolInfo6LookupEiNS0_11SymbolShapeEiiii
libZXing.so.1:_ZN5ZXing10DataMatrix10SymbolInfo6LookupEib
libZXing.so.1:_ZN5ZXing10DataMatrix12EncodeECC200ERNS_9ByteArrayERKNS0_10SymbolInfoE
libZXing.so.1:_ZN5ZXing10DataMatrix13GetDataBlocksERKNS_9ByteArrayERKNS0_7VersionE
libZXing.so.1:_ZN5ZXing10DataMatrix20VersionForDimensionsEii
libZXing.so.1:_ZN5ZXing10DataMatrix22BitMatrixFromCodewordsERKNS_9ByteArrayEii
libZXing.so.1:_ZN5ZXing10DataMatrix22CodewordsFromBitMatrixERKNS_9BitMatrixE
libZXing.so.1:_ZN5ZXing10DataMatrix22DecodedBitStreamParser16DecodeNextTripleERNS_9BitSourceE
libZXing.so.1:_ZN5ZXing10DataMatrix6DecodeERKNS_9BitMatrixERKNSt7__cxx1112basic_stringIcSt11char_traitsIcESaIcEEE
libZXing.so.1:_ZN5ZXing10DataMatrix6DetectERKNS_9BitMatrixEbbb
libZXing.so.1:_ZN5ZXing10DataMatrix6EncodeERKNSt7__cxx1112basic_stringIwSt11char_traitsIwESaIwEEE
libZXing.so.1:_ZN5ZXing10DataMatrix6EncodeERKNSt7__cxx1112basic_stringIwSt11char_traitsIwESaIwEEENS0_11SymbolShapeEiiii
libZXing.so.1:_ZN5ZXing10DataMatrix6ReaderC1ERKNS_11DecodeHintsE
libZXing.so.1:_ZN5ZXing10DataMatrix6ReaderC2ERKNS_11DecodeHintsE
libZXing.so.1:_ZN5ZXing10DataMatrix6WriterC1Ev
libZXing.so.1:_ZN5ZXing10DataMatrix6WriterC2Ev
libZXing.so.1:_ZN5ZXing10SampleGridERKNS_9BitMatrixEiiRKNS_20PerspectiveTransformE
libZXing.so.1:_ZN5ZXing10ceilingDivEmm
libZXing.so.1:_ZN5ZXing11ReadBarcodeERKNS_9ImageViewERKNS_11DecodeHintsE
libZXing.so.1:_ZN5ZXing11ReadBarcodeEiiPKhiNS_5FlagsINS_13BarcodeFormatEEEbb
libZXing.so.1:_ZN5ZXing11ReadBarcodeEiiPKhiiiiiNS_5FlagsINS_13BarcodeFormatEEEbb
libZXing.so.1:_ZN5ZXing11ResultPoint8DistanceEiiii
libZXing.so.1:_ZN5ZXing11TextDecoder13GuessEncodingEPKhmNS_12CharacterSetE
libZXing.so.1:_ZN5ZXing11TextDecoder15DefaultEncodingEv
libZXing.so.1:_ZN5ZXing11TextDecoder6AppendERNSt7__cxx1112basic_stringIwSt11char_traitsIwESaIwEEEPKhmNS_12CharacterSetE
libZXing.so.1:_ZN5ZXing11TextEncoder8GetBytesERKNSt7__cxx1112basic_stringIwSt11char_traitsIwESaIwEEENS_12CharacterSetERNS2_IcS3_IcESaIcEEE
libZXing.so.1:_ZN5ZXing12CenterOfRingERKNS_9BitMatrixENS_6PointTIiEEiib
libZXing.so.1:_ZN5ZXing13CenterOfRingsERKNS_9BitMatrixENS_6PointTIiEEii
libZXing.so.1:_ZN5ZXing13GenericGFPoly13addOrSubtractERS0_
libZXing.so.1:_ZN5ZXing13GenericGFPoly18multiplyByMonomialEii
libZXing.so.1:_ZN5ZXing13GenericGFPoly6divideERKS0_RS0_
libZXing.so.1:_ZN5ZXing13GenericGFPoly8multiplyERKS0_
libZXing.so.1:_ZN5ZXing13GenericGFPoly9normalizeEv
libZXing.so.1:_ZN5ZXing14ParseBitMatrixERKNSt7__cxx1112basic_stringIcSt11char_traitsIcESaIcEEEcb
libZXing.so.1:_ZN5ZXing14ResultMetadata3putENS0_3KeyERKNSt7__cxx1112basic_stringIwSt11char_traitsIwESaIwEEE
libZXing.so.1:_ZN5ZXing14ResultMetadata3putENS0_3KeyERKNSt7__cxx114listINS_9ByteArrayESaIS4_EEE
libZXing.so.1:_ZN5ZXing14ResultMetadata3putENS0_3KeyERKSt10shared_ptrINS_10CustomDataEE
libZXing.so.1:_ZN5ZXing14ResultMetadata3putENS0_3KeyEi
libZXing.so.1:_ZN5ZXing14ResultMetadata6putAllERKS0_
libZXing.so.1:_ZN5ZXing15CharacterSetECI12InitEncodingERKNSt7__cxx1112basic_stringIcSt11char_traitsIcESaIcEEENS_12CharacterSetE
libZXing.so.1:_ZN5ZXing15CharacterSetECI15CharsetFromNameEPKc
libZXing.so.1:_ZN5ZXing15CharacterSetECI15ValueForCharsetENS_12CharacterSetE
libZXing.so.1:_ZN5ZXing15CharacterSetECI16CharsetFromValueEi
libZXing.so.1:_ZN5ZXing15CharacterSetECI19OnChangeAppendResetEiRNSt7__cxx1112basic_stringIwSt11char_traitsIwESaIwEEERNS2_IcS3_IcESaIcEEENS_12CharacterSetE
libZXing.so.1:_ZN5ZXing15DetectWhiteRectERKNS_9BitMatrixERNS_11ResultPointES4_S4_S4_
libZXing.so.1:_ZN5ZXing15DetectWhiteRectERKNS_9BitMatrixEiiiRNS_11ResultPointES4_S4_S4_
libZXing.so.1:_ZN5ZXing15HybridBinarizerC1ERKSt10shared_ptrIKNS_15LuminanceSourceEE
libZXing.so.1:_ZN5ZXing15HybridBinarizerC2ERKSt10shared_ptrIKNS_15LuminanceSourceEE
libZXing.so.1:_ZN5ZXing15HybridBinarizerD0Ev
libZXing.so.1:_ZN5ZXing15HybridBinarizerD1Ev
libZXing.so.1:_ZN5ZXing15HybridBinarizerD2Ev
libZXing.so.1:_ZN5ZXing15LuminanceSource14CreateInvertedERKSt10shared_ptrIS0_E
libZXing.so.1:_ZN5ZXing15TextUtfEncoding10AppendUtf8ERNSt7__cxx1112basic_stringIwSt11char_traitsIwESaIwEEEPKhm
libZXing.so.1:_ZN5ZXing15TextUtfEncoding11AppendUtf16ERNSt7__cxx1112basic_stringIwSt11char_traitsIwESaIwEEEPKtm
libZXing.so.1:_ZN5ZXing15TextUtfEncoding6ToUtf8ERKNSt7__cxx1112basic_stringIwSt11char_traitsIwESaIwEEE
libZXing.so.1:_ZN5ZXing15TextUtfEncoding6ToUtf8ERKNSt7__cxx1112basic_stringIwSt11char_traitsIwESaIwEEERNS2_IcS3_IcESaIcEEE
libZXing.so.1:_ZN5ZXing15TextUtfEncoding6ToUtf8ERKNSt7__cxx1112basic_stringIwSt11char_traitsIwESaIwEEEb
libZXing.so.1:_ZN5ZXing15TextUtfEncoding8FromUtf8ERKNSt7__cxx1112basic_stringIcSt11char_traitsIcESaIcEEE
libZXing.so.1:_ZN5ZXing17AverageEdgePixelsENS_15BitMatrixCursorINS_6PointTIiEEEEii
libZXing.so.1:_ZN5ZXing17MultiFormatReaderC1ERKNS_11DecodeHintsE
libZXing.so.1:_ZN5ZXing17MultiFormatReaderC2ERKNS_11DecodeHintsE
libZXing.so.1:_ZN5ZXing17MultiFormatReaderD1Ev
libZXing.so.1:_ZN5ZXing17MultiFormatReaderD2Ev
libZXing.so.1:_ZN5ZXing17ReedSolomonDecodeERKNS_9GenericGFERSt6vectorIiSaIiEEi
libZXing.so.1:_ZN5ZXing18ReedSolomonEncoder14buildGeneratorEi
libZXing.so.1:_ZN5ZXing18ReedSolomonEncoder6encodeERSt6vectorIiSaIiEEi
libZXing.so.1:_ZN5ZXing18ReedSolomonEncoderC1ERKNS_9GenericGFE
libZXing.so.1:_ZN5ZXing18ReedSolomonEncoderC2ERKNS_9GenericGFE
libZXing.so.1:_ZN5ZXing19CenterOfDoubleCrossERKNS_9BitMatrixENS_6PointTIiEEii
libZXing.so.1:_ZN5ZXing20PerspectiveTransform12UnitSquareToERKNS_13QuadrilateralINS_6PointTIdEEEE
libZXing.so.1:_ZN5ZXing20PerspectiveTransformC1ERKNS_13QuadrilateralINS_6PointTIdEEEES6_
libZXing.so.1:_ZN5ZXing20PerspectiveTransformC2ERKNS_13QuadrilateralINS_6PointTIdEEEES6_
libZXing.so.1:_ZN5ZXing22GenericLuminanceSourceC1EiiPKvi
libZXing.so.1:_ZN5ZXing22GenericLuminanceSourceC1EiiPKviiiii
libZXing.so.1:_ZN5ZXing22GenericLuminanceSourceC1EiiiiPKvi
libZXing.so.1:_ZN5ZXing22GenericLuminanceSourceC1EiiiiPKviiiii
libZXing.so.1:_ZN5ZXing22GenericLuminanceSourceC1EiiiiPKviiiiiPv
libZXing.so.1:_ZN5ZXing22GenericLuminanceSourceC1EiiiiSt10shared_ptrIKNS_9ByteArrayEEi
libZXing.so.1:_ZN5ZXing22GenericLuminanceSourceC2EiiPKvi
libZXing.so.1:_ZN5ZXing22GenericLuminanceSourceC2EiiPKviiiii
libZXing.so.1:_ZN5ZXing22GenericLuminanceSourceC2EiiiiPKvi
libZXing.so.1:_ZN5ZXing22GenericLuminanceSourceC2EiiiiPKviiiii
libZXing.so.1:_ZN5ZXing22GenericLuminanceSourceC2EiiiiPKviiiiiPv
libZXing.so.1:_ZN5ZXing22GenericLuminanceSourceC2EiiiiSt10shared_ptrIKNS_9ByteArrayEEi
libZXing.so.1:_ZN5ZXing23BarcodeFormatFromStringERKNSt7__cxx1112basic_stringIcSt11char_traitsIcESaIcEEE
libZXing.so.1:_ZN5ZXing24BarcodeFormatsFromStringERKNSt7__cxx1112basic_stringIcSt11char_traitsIcESaIcEEE
libZXing.so.1:_ZN5ZXing24GlobalHistogramBinarizerC1ESt10shared_ptrIKNS_15LuminanceSourceEE
libZXing.so.1:_ZN5ZXing24GlobalHistogramBinarizerC2ESt10shared_ptrIKNS_15LuminanceSourceEE
libZXing.so.1:_ZN5ZXing24GlobalHistogramBinarizerD0Ev
libZXing.so.1:_ZN5ZXing24GlobalHistogramBinarizerD1Ev
libZXing.so.1:_ZN5ZXing24GlobalHistogramBinarizerD2Ev
libZXing.so.1:_ZN5ZXing31FinetuneConcentricPatternCenterERKNS_9BitMatrixENS_6PointTIdEEii
libZXing.so.1:_ZN5ZXing4GTIN23LookupCountryIdentifierERKNSt7__cxx1112basic_stringIcSt11char_traitsIcESaIcEEE
libZXing.so.1:_ZN5ZXing4GTIN5PriceERKNSt7__cxx1112basic_stringIcSt11char_traitsIcESaIcEEE
libZXing.so.1:_ZN5ZXing4GTIN7IssueNrERKNSt7__cxx1112basic_stringIcSt11char_traitsIcESaIcEEE
libZXing.so.1:_ZN5ZXing4GTIN8EanAddOnB5cxx11ERKNS_6ResultE
libZXing.so.1:_ZN5ZXing4GTINltERKNS0_9CountryIdES3_
libZXing.so.1:_ZN5ZXing4OneD11IsLeftGuardERKNS_11PatternViewEi
libZXing.so.1:_ZN5ZXing4OneD12Code39ReaderC1ERKNS_11DecodeHintsE
libZXing.so.1:_ZN5ZXing4OneD12Code39ReaderC2ERKNS_11DecodeHintsE
libZXing.so.1:_ZN5ZXing4OneD12WriterHelper12RenderResultERKSt6vectorIbSaIbEEiii
libZXing.so.1:_ZN5ZXing4OneD12WriterHelper13AppendPatternERSt6vectorIbSaIbEEiPKimb
libZXing.so.1:_ZN5ZXing4OneD13CodabarReaderC1ERKNS_11DecodeHintsE
libZXing.so.1:_ZN5ZXing4OneD13CodabarReaderC2ERKNS_11DecodeHintsE
libZXing.so.1:_ZN5ZXing4OneD13Code128ReaderC1ERKNS_11DecodeHintsE
libZXing.so.1:_ZN5ZXing4OneD13Code128ReaderC2ERKNS_11DecodeHintsE
libZXing.so.1:_ZN5ZXing4OneD13DataBarReaderC1ERKNS_11DecodeHintsE
libZXing.so.1:_ZN5ZXing4OneD13DataBarReaderC2ERKNS_11DecodeHintsE
libZXing.so.1:_ZN5ZXing4OneD13DataBarReaderD0Ev
libZXing.so.1:_ZN5ZXing4OneD13DataBarReaderD1Ev
libZXing.so.1:_ZN5ZXing4OneD13DataBarReaderD2Ev
libZXing.so.1:_ZN5ZXing4OneD17MultiUPCEANReaderC1ERKNS_11DecodeHintsE
libZXing.so.1:_ZN5ZXing4OneD17MultiUPCEANReaderC2ERKNS_11DecodeHintsE
libZXing.so.1:_ZN5ZXing4OneD17MultiUPCEANReaderD0Ev
libZXing.so.1:_ZN5ZXing4OneD17MultiUPCEANReaderD1Ev
libZXing.so.1:_ZN5ZXing4OneD17MultiUPCEANReaderD2Ev
libZXing.so.1:_ZN5ZXing4OneD18ParseFinderPatternERKNS_11PatternViewEb
libZXing.so.1:_ZN5ZXing4OneD21DataBarExpandedReaderC1ERKNS_11DecodeHintsE
libZXing.so.1:_ZN5ZXing4OneD21DataBarExpandedReaderC2ERKNS_11DecodeHintsE
libZXing.so.1:_ZN5ZXing4OneD21DataBarExpandedReaderD0Ev
libZXing.so.1:_ZN5ZXing4OneD21DataBarExpandedReaderD1Ev
libZXing.so.1:_ZN5ZXing4OneD21DataBarExpandedReaderD2Ev
libZXing.so.1:_ZN5ZXing4OneD23_ret_false_debug_helperEv
libZXing.so.1:_ZN5ZXing4OneD29DecodeExtendedCode39AndCode93ERNSt7__cxx1112basic_stringIcSt11char_traitsIcESaIcEEEPKc
libZXing.so.1:_ZN5ZXing4OneD6ReaderC1ERKNS_11DecodeHintsE
libZXing.so.1:_ZN5ZXing4OneD6ReaderC2ERKNS_11DecodeHintsE
libZXing.so.1:_ZN5ZXing4OneD6ReaderD0Ev
libZXing.so.1:_ZN5ZXing4OneD6ReaderD1Ev
libZXing.so.1:_ZN5ZXing4OneD6ReaderD2Ev
libZXing.so.1:_ZN5ZXing4OneD7DataBar16EstimatePositionERKNS1_4PairES4_
libZXing.so.1:_ZN5ZXing4OneD7DataBar18DecodeExpandedBitsB5cxx11ERKNS_8BitArrayE
libZXing.so.1:_ZN5ZXing4OneD7DataBar19DecodeAppIdAllCodesERKNS_8BitArrayEiRNSt7__cxx1112basic_stringIcSt11char_traitsIcESaIcEEE
libZXing.so.1:_ZN5ZXing4OneD7DataBar20ReadDataCharacterRawERKNS_11PatternViewEibRSt5arrayIiLm4EES7_
libZXing.so.1:_ZN5ZXing4OneD7DataBar27ParseFieldsInGeneralPurposeERKNSt7__cxx1112basic_stringIcSt11char_traitsIcESaIcEEERS7_
libZXing.so.1:_ZN5ZXing4OneD7DataBar30DecodeAppIdGeneralPurposeFieldERKNS_8BitArrayEiRNSt7__cxx1112basic_stringIcSt11char_traitsIcESaIcEEE
libZXing.so.1:_ZN5ZXing4OneD7DataBar8GetValueERKSt5arrayIiLm4EEib
libZXing.so.1:_ZN5ZXing4OneD9ITFReaderC1ERKNS_11DecodeHintsE
libZXing.so.1:_ZN5ZXing4OneD9ITFReaderC2ERKNS_11DecodeHintsE
libZXing.so.1:_ZN5ZXing5Aztec16HighLevelEncoder6EncodeERKNSt7__cxx1112basic_stringIcSt11char_traitsIcESaIcEEE
libZXing.so.1:_ZN5ZXing5Aztec6ReaderC1ERKNS_11DecodeHintsE
libZXing.so.1:_ZN5ZXing5Aztec6ReaderC2ERKNS_11DecodeHintsE
libZXing.so.1:_ZN5ZXing5Aztec6WriterC1Ev
libZXing.so.1:_ZN5ZXing5Aztec6WriterC2Ev
libZXing.so.1:_ZN5ZXing5Aztec7Decoder6DecodeERKNS0_14DetectorResultERKNSt7__cxx1112basic_stringIcSt11char_traitsIcESaIcEEE
libZXing.so.1:_ZN5ZXing5Aztec7Encoder6EncodeERKNSt7__cxx1112basic_stringIcSt11char_traitsIcESaIcEEEii
libZXing.so.1:_ZN5ZXing5Aztec8Detector6DetectERKNS_9BitMatrixEbb
libZXing.so.1:_ZN5ZXing6Pdf41711BoundingBox14AddMissingRowsERKS1_iibRS1_
libZXing.so.1:_ZN5ZXing6Pdf41711BoundingBox21calculateMinMaxValuesEv
libZXing.so.1:_ZN5ZXing6Pdf41711BoundingBox5MergeERKNS_8NullableIS1_EES5_RS3_
libZXing.so.1:_ZN5ZXing6Pdf41711BoundingBox6CreateEiiRKNS_8NullableINS_11ResultPointEEES6_S6_S6_RS1_
libZXing.so.1:_ZN5ZXing6Pdf41711BoundingBoxC1Ev
libZXing.so.1:_ZN5ZXing6Pdf41711BoundingBoxC2Ev
libZXing.so.1:_ZN5ZXing6Pdf41711ModulusPolyC1ERKNS0_9ModulusGFERKSt6vectorIiSaIiEE
libZXing.so.1:_ZN5ZXing6Pdf41711ModulusPolyC2ERKNS0_9ModulusGFERKSt6vectorIiSaIiEE
libZXing.so.1:_ZN5ZXing6Pdf41712BarcodeValue8setValueEi
libZXing.so.1:_ZN5ZXing6Pdf41715CodewordDecoder11GetCodewordEi
libZXing.so.1:_ZN5ZXing6Pdf41715CodewordDecoder15GetDecodedValueERKSt5arrayIiLm8EE
libZXing.so.1:_ZN5ZXing6Pdf41715DecodeCodewordsERSt6vectorIiSaIiEEiRKS3_RKNSt7__cxx1112basic_stringIcSt11char_traitsIcESaIcEEE
libZXing.so.1:_ZN5ZXing6Pdf41715DetectionResult10allColumnsEv
libZXing.so.1:_ZN5ZXing6Pdf41715DetectionResult4initERKNS0_15BarcodeMetadataERKNS_8NullableINS0_11BoundingBoxEEE
libZXing.so.1:_ZN5ZXing6Pdf41715DetectionResultC1ERKNS0_15BarcodeMetadataERKNS_8NullableINS0_11BoundingBoxEEE
libZXing.so.1:_ZN5ZXing6Pdf41715DetectionResultC2ERKNS0_15BarcodeMetadataERKNS_8NullableINS0_11BoundingBoxEEE
libZXing.so.1:_ZN5ZXing6Pdf41715HasStartPatternERKNS_9BitMatrixE
libZXing.so.1:_ZN5ZXing6Pdf41715ScanningDecoder6DecodeERKNS_9BitMatrixERKNS_8NullableINS_11ResultPointEEES9_S9_S9_iiRKNSt7__cxx1112basic_stringIcSt11char_traitsIcESaIcEEE
libZXing.so.1:_ZN5ZXing6Pdf41716HighLevelEncoder15EncodeHighLevelERKNSt7__cxx1112basic_stringIwSt11char_traitsIwESaIwEEENS0_10CompactionENS_12CharacterSetE
libZXing.so.1:_ZN5ZXing6Pdf41721DetectionResultColumn13getRowHeightsERSt6vectorIiSaIiEE
libZXing.so.1:_ZN5ZXing6Pdf41721DetectionResultColumn13setRowNumbersEv
libZXing.so.1:_ZN5ZXing6Pdf41721DetectionResultColumn18getBarcodeMetadataERNS0_15BarcodeMetadataE
libZXing.so.1:_ZN5ZXing6Pdf41721DetectionResultColumn39adjustCompleteIndicatorColumnRowNumbersERKNS0_15BarcodeMetadataE
libZXing.so.1:_ZN5ZXing6Pdf41721DetectionResultColumn41adjustIncompleteIndicatorColumnRowNumbersERKNS0_15BarcodeMetadataE
libZXing.so.1:_ZN5ZXing6Pdf41721DetectionResultColumnC1ERKNS0_11BoundingBoxENS1_12RowIndicatorE
libZXing.so.1:_ZN5ZXing6Pdf41721DetectionResultColumnC2ERKNS0_11BoundingBoxENS1_12RowIndicatorE
libZXing.so.1:_ZN5ZXing6Pdf41722DecodedBitStreamParser6DecodeERKSt6vectorIiSaIiEEiRKNSt7__cxx1112basic_stringIcSt11char_traitsIcESaIcEEE
libZXing.so.1:_ZN5ZXing6Pdf4176ReaderC1ERKNS_11DecodeHintsE
libZXing.so.1:_ZN5ZXing6Pdf4176ReaderC2ERKNS_11DecodeHintsE
libZXing.so.1:_ZN5ZXing6Pdf4176Writer10setCompactEb
libZXing.so.1:_ZN5ZXing6Pdf4176Writer11setEncodingENS_12CharacterSetE
libZXing.so.1:_ZN5ZXing6Pdf4176Writer13setCompactionENS0_10CompactionE
libZXing.so.1:_ZN5ZXing6Pdf4176Writer13setDimensionsEiiii
libZXing.so.1:_ZN5ZXing6Pdf4176WriterC1EOS1_
libZXing.so.1:_ZN5ZXing6Pdf4176WriterC1Ev
libZXing.so.1:_ZN5ZXing6Pdf4176WriterC2EOS1_
libZXing.so.1:_ZN5ZXing6Pdf4176WriterC2Ev
libZXing.so.1:_ZN5ZXing6Pdf4176WriterD1Ev
libZXing.so.1:_ZN5ZXing6Pdf4176WriterD2Ev
libZXing.so.1:_ZN5ZXing6Pdf4177Encoder41GetRecommendedMinimumErrorCorrectionLevelEi
libZXing.so.1:_ZN5ZXing6Pdf4178Detector6DetectERKNS_12BinaryBitmapEbRNS1_6ResultE
libZXing.so.1:_ZN5ZXing6Pdf4178DoDecodeERKNS_12BinaryBitmapEbRNSt7__cxx114listINS_6ResultESaIS6_EEERKNS4_12basic_stringIcSt11char_traitsIcESaIcEEE
libZXing.so.1:_ZN5ZXing6Pdf4179ModulusGFC1Eii
libZXing.so.1:_ZN5ZXing6Pdf4179ModulusGFC2Eii
libZXing.so.1:_ZN5ZXing6QRCode11BuildMatrixERKNS_8BitArrayENS0_20ErrorCorrectionLevelERKNS0_7VersionEiRNS_6MatrixINS_4TritEEE
libZXing.so.1:_ZN5ZXing6QRCode11ReadVersionERKNS_9BitMatrixE
libZXing.so.1:_ZN5ZXing6QRCode13ReadCodewordsERKNS_9BitMatrixERKNS0_7VersionEib
libZXing.so.1:_ZN5ZXing6QRCode15BitsFromECLevelENS0_20ErrorCorrectionLevelE
libZXing.so.1:_ZN5ZXing6QRCode15ECLevelFromBitsEi
libZXing.so.1:_ZN5ZXing6QRCode16CodecModeForBitsEi
libZXing.so.1:_ZN5ZXing6QRCode17ECLevelFromStringEPKc
libZXing.so.1:_ZN5ZXing6QRCode17FormatInformation23DecodeFormatInformationEjj
libZXing.so.1:_ZN5ZXing6QRCode17FormatInformationC1Ei
libZXing.so.1:_ZN5ZXing6QRCode17FormatInformationC2Ei
libZXing.so.1:_ZN5ZXing6QRCode18CharacterCountBitsENS0_9CodecModeERKNS0_7VersionE
libZXing.so.1:_ZN5ZXing6QRCode21ReadFormatInformationERKNS_9BitMatrixEb
libZXing.so.1:_ZN5ZXing6QRCode6DecodeERKNS_9BitMatrixERKNSt7__cxx1112basic_stringIcSt11char_traitsIcESaIcEEE
libZXing.so.1:_ZN5ZXing6QRCode6DetectERKNS_9BitMatrixEbb
libZXing.so.1:_ZN5ZXing6QRCode6EncodeERKNSt7__cxx1112basic_stringIwSt11char_traitsIwESaIwEEENS0_20ErrorCorrectionLevelENS_12CharacterSetEibi
libZXing.so.1:_ZN5ZXing6QRCode6ReaderC1ERKNS_11DecodeHintsE
libZXing.so.1:_ZN5ZXing6QRCode6ReaderC2ERKNS_11DecodeHintsE
libZXing.so.1:_ZN5ZXing6QRCode6WriterC1Ev
libZXing.so.1:_ZN5ZXing6QRCode6WriterC2Ev
libZXing.so.1:_ZN5ZXing6QRCode7Version11AllVersionsEv
libZXing.so.1:_ZN5ZXing6QRCode7Version16VersionForNumberEi
libZXing.so.1:_ZN5ZXing6QRCode7Version24DecodeVersionInformationEi
libZXing.so.1:_ZN5ZXing6QRCode7Version30ProvisionalVersionForDimensionEi
libZXing.so.1:_ZN5ZXing6QRCode7VersionC1EiSt16initializer_listIiERKSt5arrayINS0_8ECBlocksELm4EE
libZXing.so.1:_ZN5ZXing6QRCode7VersionC2EiSt16initializer_listIiERKSt5arrayINS0_8ECBlocksELm4EE
libZXing.so.1:_ZN5ZXing6QRCode8MaskUtil20CalculateMaskPenaltyERKNS_6MatrixINS_4TritEEE
libZXing.so.1:_ZN5ZXing6QRCode8ToStringENS0_20ErrorCorrectionLevelE
libZXing.so.1:_ZN5ZXing6QRCode9DataBlock13GetDataBlocksERKNS_9ByteArrayERKNS0_7VersionENS0_20ErrorCorrectionLevelE
libZXing.so.1:_ZN5ZXing6ResultC1EONS_13DecoderResultEONS_13QuadrilateralINS_6PointTIiEEEENS_13BarcodeFormatE
libZXing.so.1:_ZN5ZXing6ResultC1EONSt7__cxx1112basic_stringIwSt11char_traitsIwESaIwEEEONS_13QuadrilateralINS_6PointTIiEEEENS_13BarcodeFormatEONS_9ByteArrayEb
libZXing.so.1:_ZN5ZXing6ResultC1ERKNSt7__cxx1112basic_stringIcSt11char_traitsIcESaIcEEEiiiNS_13BarcodeFormatEONS_9ByteArrayEb
libZXing.so.1:_ZN5ZXing6ResultC2EONS_13DecoderResultEONS_13QuadrilateralINS_6PointTIiEEEENS_13BarcodeFormatE
libZXing.so.1:_ZN5ZXing6ResultC2EONSt7__cxx1112basic_stringIwSt11char_traitsIwESaIwEEEONS_13QuadrilateralINS_6PointTIiEEEENS_13BarcodeFormatEONS_9ByteArrayEb
libZXing.so.1:_ZN5ZXing6ResultC2ERKNSt7__cxx1112basic_stringIcSt11char_traitsIcESaIcEEEiiiNS_13BarcodeFormatEONS_9ByteArrayEb
libZXing.so.1:_ZN5ZXing7DeflateERKNS_9BitMatrixEiifff
libZXing.so.1:_ZN5ZXing7InflateEONS_9BitMatrixEiii
libZXing.so.1:_ZN5ZXing8BitArray10bitwiseXORERKS0_
libZXing.so.1:_ZN5ZXing8MaxiCode15BitMatrixParser13ReadCodewordsERKNS_9BitMatrixE
libZXing.so.1:_ZN5ZXing8MaxiCode6ReaderC1ERKNS_11DecodeHintsE
libZXing.so.1:_ZN5ZXing8MaxiCode6ReaderC2ERKNS_11DecodeHintsE
libZXing.so.1:_ZN5ZXing8MaxiCode7Decoder6DecodeERKNS_9BitMatrixERKNSt7__cxx1112basic_stringIcSt11char_traitsIcESaIcEEE
libZXing.so.1:_ZN5ZXing8ToStringB5cxx11ENS_5FlagsINS_13BarcodeFormatEEE
libZXing.so.1:_ZN5ZXing8ToStringB5cxx11ERKNS_9BitMatrixEccbb
libZXing.so.1:_ZN5ZXing8ToStringENS_13BarcodeFormatE
libZXing.so.1:_ZN5ZXing9BitMatrix6mirrorEv
libZXing.so.1:_ZN5ZXing9BitMatrix8rotate90Ev
libZXing.so.1:_ZN5ZXing9BitMatrix9rotate180Ev
libZXing.so.1:_ZN5ZXing9BitMatrix9setRegionEiiii
libZXing.so.1:_ZN5ZXing9BitSource8readBitsEi
libZXing.so.1:_ZN5ZXing9GenericGF10AztecData6Ev
libZXing.so.1:_ZN5ZXing9GenericGF10AztecData8Ev
libZXing.so.1:_ZN5ZXing9GenericGF10AztecParamEv
libZXing.so.1:_ZN5ZXing9GenericGF11AztecData10Ev
libZXing.so.1:_ZN5ZXing9GenericGF11AztecData12Ev
libZXing.so.1:_ZN5ZXing9GenericGF14QRCodeField256Ev
libZXing.so.1:_ZN5ZXing9GenericGF15MaxiCodeField64Ev
libZXing.so.1:_ZN5ZXing9GenericGF18DataMatrixField256Ev
libZXing.so.1:_ZN5ZXing9GenericGFC1Eiii
libZXing.so.1:_ZN5ZXing9GenericGFC2Eiii
libZXing.so.1:_ZN5ZXing9SaveAsPBMERKNS_9BitMatrixENSt7__cxx1112basic_stringIcSt11char_traitsIcESaIcEEEi
libZXing.so.1:_ZNK5ZXing10BigInteger5toIntEv
libZXing.so.1:_ZNK5ZXing10BigInteger8toStringB5cxx11Ev
libZXing.so.1:_ZNK5ZXing10DataMatrix10SymbolInfo19verticalDataRegionsEv
libZXing.so.1:_ZNK5ZXing10DataMatrix10SymbolInfo21horizontalDataRegionsEv
libZXing.so.1:_ZNK5ZXing10DataMatrix6Reader6decodeERKNS_12BinaryBitmapE
libZXing.so.1:_ZNK5ZXing10DataMatrix6Writer6encodeERKNSt7__cxx1112basic_stringIwSt11char_traitsIwESaIwEEEii
libZXing.so.1:_ZNK5ZXing13GenericGFPoly10evaluateAtEi
libZXing.so.1:_ZNK5ZXing14ResultMetadata13getCustomDataENS0_3KeyE
libZXing.so.1:_ZNK5ZXing14ResultMetadata16getByteArrayListB5cxx11ENS0_3KeyE
libZXing.so.1:_ZNK5ZXing14ResultMetadata6getIntENS0_3KeyEi
libZXing.so.1:_ZNK5ZXing14ResultMetadata9getStringB5cxx11ENS0_3KeyE
libZXing.so.1:_ZNK5ZXing15HybridBinarizer11newInstanceERKSt10shared_ptrIKNS_15LuminanceSourceEE
libZXing.so.1:_ZNK5ZXing15HybridBinarizer14getBlackMatrixEv
libZXing.so.1:_ZNK5ZXing15LuminanceSource11getInvertedEv
libZXing.so.1:_ZNK5ZXing15LuminanceSource7canCropEv
libZXing.so.1:_ZNK5ZXing15LuminanceSource7croppedEiiii
libZXing.so.1:_ZNK5ZXing15LuminanceSource7rotatedEi
libZXing.so.1:_ZNK5ZXing15LuminanceSource9canRotateEv
libZXing.so.1:_ZNK5ZXing17MultiFormatReader4readERKNS_12BinaryBitmapE
libZXing.so.1:_ZNK5ZXing17MultiFormatWriter6encodeERKNSt7__cxx1112basic_stringIwSt11char_traitsIwESaIwEEEii
libZXing.so.1:_ZNK5ZXing20PerspectiveTransform5timesERKS0_
libZXing.so.1:_ZNK5ZXing20PerspectiveTransform7inverseEv
libZXing.so.1:_ZNK5ZXing20PerspectiveTransformclENS_6PointTIdEE
libZXing.so.1:_ZNK5ZXing22GenericLuminanceSource5widthEv
libZXing.so.1:_ZNK5ZXing22GenericLuminanceSource6getRowEiRNS_9ByteArrayEb
libZXing.so.1:_ZNK5ZXing22GenericLuminanceSource6heightEv
libZXing.so.1:_ZNK5ZXing22GenericLuminanceSource7canCropEv
libZXing.so.1:_ZNK5ZXing22GenericLuminanceSource7croppedEiiii
libZXing.so.1:_ZNK5ZXing22GenericLuminanceSource7rotatedEi
libZXing.so.1:_ZNK5ZXing22GenericLuminanceSource9canRotateEv
libZXing.so.1:_ZNK5ZXing22GenericLuminanceSource9getMatrixERNS_9ByteArrayERib
libZXing.so.1:_ZNK5ZXing24GlobalHistogramBinarizer11newInstanceERKSt10shared_ptrIKNS_15LuminanceSourceEE
libZXing.so.1:_ZNK5ZXing24GlobalHistogramBinarizer13getPatternRowEiRSt6vectorItSaItEE
libZXing.so.1:_ZNK5ZXing24GlobalHistogramBinarizer14getBlackMatrixEv
libZXing.so.1:_ZNK5ZXing24GlobalHistogramBinarizer5widthEv
libZXing.so.1:_ZNK5ZXing24GlobalHistogramBinarizer6heightEv
libZXing.so.1:_ZNK5ZXing24GlobalHistogramBinarizer7canCropEv
libZXing.so.1:_ZNK5ZXing24GlobalHistogramBinarizer7croppedEiiii
libZXing.so.1:_ZNK5ZXing24GlobalHistogramBinarizer7rotatedEi
libZXing.so.1:_ZNK5ZXing24GlobalHistogramBinarizer9canRotateEv
libZXing.so.1:_ZNK5ZXing4OneD10EAN8Writer6encodeERKNSt7__cxx1112basic_stringIwSt11char_traitsIwESaIwEEEii
libZXing.so.1:_ZNK5ZXing4OneD10UPCAWriter6encodeERKNSt7__cxx1112basic_stringIwSt11char_traitsIwESaIwEEEii
libZXing.so.1:_ZNK5ZXing4OneD10UPCEWriter6encodeERKNSt7__cxx1112basic_stringIwSt11char_traitsIwESaIwEEEii
libZXing.so.1:_ZNK5ZXing4OneD11EAN13Writer6encodeERKNSt7__cxx1112basic_stringIwSt11char_traitsIwESaIwEEEii
libZXing.so.1:_ZNK5ZXing4OneD12Code39Reader13decodePatternEiRKNS_11PatternViewERSt10unique_ptrINS0_9RowReader13DecodingStateESt14default_deleteIS7_EE
libZXing.so.1:_ZNK5ZXing4OneD12Code39Writer6encodeERKNSt7__cxx1112basic_stringIwSt11char_traitsIwESaIwEEEii
libZXing.so.1:_ZNK5ZXing4OneD12Code93Reader13decodePatternEiRKNS_11PatternViewERSt10unique_ptrINS0_9RowReader13DecodingStateESt14default_deleteIS7_EE
libZXing.so.1:_ZNK5ZXing4OneD12Code93Writer6encodeERKNSt7__cxx1112basic_stringIwSt11char_traitsIwESaIwEEEii
libZXing.so.1:_ZNK5ZXing4OneD13CodabarReader13decodePatternEiRKNS_11PatternViewERSt10unique_ptrINS0_9RowReader13DecodingStateESt14default_deleteIS7_EE
libZXing.so.1:_ZNK5ZXing4OneD13CodabarWriter6encodeERKNSt7__cxx1112basic_stringIwSt11char_traitsIwESaIwEEEii
libZXing.so.1:_ZNK5ZXing4OneD13Code128Reader13decodePatternEiRKNS_11PatternViewERSt10unique_ptrINS0_9RowReader13DecodingStateESt14default_deleteIS7_EE
libZXing.so.1:_ZNK5ZXing4OneD13Code128Writer6encodeERKNSt7__cxx1112basic_stringIwSt11char_traitsIwESaIwEEEii
libZXing.so.1:_ZNK5ZXing4OneD13DataBarReader13decodePatternEiRKNS_11PatternViewERSt10unique_ptrINS0_9RowReader13DecodingStateESt14default_deleteIS7_EE
libZXing.so.1:_ZNK5ZXing4OneD17MultiUPCEANReader13decodePatternEiRKNS_11PatternViewERSt10unique_ptrINS0_9RowReader13DecodingStateESt14default_deleteIS7_EE
libZXing.so.1:_ZNK5ZXing4OneD21DataBarExpandedReader13decodePatternEiRKNS_11PatternViewERSt10unique_ptrINS0_9RowReader13DecodingStateESt14default_deleteIS7_EE
libZXing.so.1:_ZNK5ZXing4OneD6Reader6decodeERKNS_12BinaryBitmapE
libZXing.so.1:_ZNK5ZXing4OneD9ITFReader13decodePatternEiRKNS_11PatternViewERSt10unique_ptrINS0_9RowReader13DecodingStateESt14default_deleteIS7_EE
libZXing.so.1:_ZNK5ZXing4OneD9ITFWriter6encodeERKNSt7__cxx1112basic_stringIwSt11char_traitsIwESaIwEEEii
libZXing.so.1:_ZNK5ZXing4OneD9RowReader15decodeSingleRowEiRKNS_8BitArrayE
libZXing.so.1:_ZNK5ZXing5Aztec5Token8appendToERNS_8BitArrayERKNSt7__cxx1112basic_stringIcSt11char_traitsIcESaIcEEE
libZXing.so.1:_ZNK5ZXing5Aztec6Reader6decodeERKNS_12BinaryBitmapE
libZXing.so.1:_ZNK5ZXing5Aztec6Writer6encodeERKNSt7__cxx1112basic_stringIwSt11char_traitsIwESaIwEEEii
libZXing.so.1:_ZNK5ZXing6Pdf41711ModulusPoly10evaluateAtEi
libZXing.so.1:_ZNK5ZXing6Pdf41711ModulusPoly18multiplyByMonomialEii
libZXing.so.1:_ZNK5ZXing6Pdf41711ModulusPoly3addERKS1_
libZXing.so.1:_ZNK5ZXing6Pdf41711ModulusPoly6divideERKS1_RS1_S4_
libZXing.so.1:_ZNK5ZXing6Pdf41711ModulusPoly8multiplyERKS1_
libZXing.so.1:_ZNK5ZXing6Pdf41711ModulusPoly8multiplyEi
libZXing.so.1:_ZNK5ZXing6Pdf41711ModulusPoly8negativeEv
libZXing.so.1:_ZNK5ZXing6Pdf41711ModulusPoly8subtractERKS1_
libZXing.so.1:_ZNK5ZXing6Pdf41712BarcodeValue10confidenceEi
libZXing.so.1:_ZNK5ZXing6Pdf41712BarcodeValue5valueEv
libZXing.so.1:_ZNK5ZXing6Pdf41721DetectionResultColumn14codewordNearbyEi
libZXing.so.1:_ZNK5ZXing6Pdf4176Reader14decodeMultipleB5cxx11ERKNS_12BinaryBitmapE
libZXing.so.1:_ZNK5ZXing6Pdf4176Reader6decodeERKNS_12BinaryBitmapE
libZXing.so.1:_ZNK5ZXing6Pdf4176Writer6encodeERKNSt7__cxx1112basic_stringIwSt11char_traitsIwESaIwEEEii
libZXing.so.1:_ZNK5ZXing6Pdf4177Encoder20generateBarcodeLogicERKNSt7__cxx1112basic_stringIwSt11char_traitsIwESaIwEEEi
libZXing.so.1:_ZNK5ZXing6Pdf4179ModulusGF13buildMonomialEii
libZXing.so.1:_ZNK5ZXing6QRCode6Reader6decodeERKNS_12BinaryBitmapE
libZXing.so.1:_ZNK5ZXing6QRCode6Writer6encodeERKNSt7__cxx1112basic_stringIwSt11char_traitsIwESaIwEEEii
libZXing.so.1:_ZNK5ZXing6QRCode7Version20buildFunctionPatternEv
libZXing.so.1:_ZNK5ZXing6Result11orientationEv
libZXing.so.1:_ZNK5ZXing8BitArray7toBytesEii
libZXing.so.1:_ZNK5ZXing8MaxiCode6Reader6decodeERKNS_12BinaryBitmapE
libZXing.so.1:_ZNK5ZXing9BitMatrix12toByteMatrixEii
libZXing.so.1:_ZNK5ZXing9BitMatrix13getPatternRowEiRSt6vectorItSaItEE
libZXing.so.1:_ZNK5ZXing9BitMatrix15findBoundingBoxERiS1_S1_S1_i
libZXing.so.1:_ZNK5ZXing9BitMatrix15getTopLeftOnBitERiS1_
libZXing.so.1:_ZNK5ZXing9BitMatrix19getBottomRightOnBitERiS1_
libZXing.so.1:_ZNK5ZXing9BitMatrix6getRowEiRNS_8BitArrayE
libZXing.so.1:_ZNK5ZXing9BitSource9availableEv
libZXing.so.1:_ZNSt17_Function_handlerIFiiRNSt7__cxx1112basic_stringIcSt11char_traitsIcESaIcEEEEPS7_E10_M_managerERSt9_Any_dataRKSA_St18_Manager_operation
libZXing.so.1:_ZNSt17_Function_handlerIFiiRNSt7__cxx1112basic_stringIcSt11char_traitsIcESaIcEEEEPS7_E9_M_invokeERKSt9_Any_dataOiS6_
libZXing.so.1:_ZZNSt9once_flag18_Prepare_executionC4IZSt9call_onceIPFvRKN5ZXing15LuminanceSourceERSt10shared_ptrIKNS3_9BitMatrixEEEJSt17reference_wrapperIS5_ESE_ISA_EEEvRS_OT_DpOT0_EUlvE_EERSI_ENUlvE_4_FUNEv
